; Function Attrs: mustprogress uwtable
define hidden noundef i64 @_ZNK11opencv_onnx22StringStringEntryProto12ByteSizeLongEv(ptr noundef nonnull align 8 dereferenceable(40) %0) unnamed_addr #3 align 2 {
  %2 = getelementptr inbounds nuw i8, ptr %0, i64 16
  %3 = load i32, ptr %2, align 8, !tbaa !51
  %4 = and i32 %3, 3
  %.not = icmp eq i32 %4, 0
  br i1 %.not, label %46, label %5

5:                                                ; preds = %1
  %6 = and i32 %3, 1
  %.not6 = icmp eq i32 %6, 0
  br i1 %.not6, label %25, label %7

7:                                                ; preds = %5
  %8 = getelementptr inbounds nuw i8, ptr %0, i64 24
  %9 = load ptr, ptr %8, align 8, !tbaa !41
  %10 = ptrtoint ptr %9 to i64
  %11 = and i64 %10, -2
  %12 = inttoptr i64 %11 to ptr
  %13 = getelementptr inbounds nuw i8, ptr %12, i64 8
  %14 = load i64, ptr %13, align 8, !tbaa !53
  %15 = trunc i64 %14 to i32
  %16 = or i32 %15, 1
  %17 = tail call range(i32 0, 33) i32 @llvm.ctlz.i32(i32 %16, i1 true)
  %18 = xor i32 %17, 31
  %19 = mul nuw nsw i32 %18, 9
  %20 = add nuw nsw i32 %19, 73
  %21 = lshr i32 %20, 6
  %22 = zext nneg i32 %21 to i64
  %23 = add i64 %14, 1
  %24 = add i64 %23, %22
  br label %25

25:                                               ; preds = %7, %5
  %.1 = phi i64 [ %24, %7 ], [ 0, %5 ]
  %26 = and i32 %3, 2
  %.not7 = icmp eq i32 %26, 0
  br i1 %.not7, label %46, label %27

27:                                               ; preds = %25
  %28 = getelementptr inbounds nuw i8, ptr %0, i64 32
  %29 = load ptr, ptr %28, align 8, !tbaa !41
  %30 = ptrtoint ptr %29 to i64
  %31 = and i64 %30, -2
  %32 = inttoptr i64 %31 to ptr
  %33 = getelementptr inbounds nuw i8, ptr %32, i64 8
  %34 = load i64, ptr %33, align 8, !tbaa !53
  %35 = trunc i64 %34 to i32
  %36 = or i32 %35, 1
  %37 = tail call range(i32 0, 33) i32 @llvm.ctlz.i32(i32 %36, i1 true)
  %38 = xor i32 %37, 31
  %39 = mul nuw nsw i32 %38, 9
  %40 = add nuw nsw i32 %39, 73
  %41 = lshr i32 %40, 6
  %42 = zext nneg i32 %41 to i64
  %43 = add i64 %.1, 1
  %44 = add i64 %43, %34
  %45 = add i64 %44, %42
  br label %46

46:                                               ; preds = %25, %27, %1
  %.0 = phi i64 [ %45, %27 ], [ %.1, %25 ], [ 0, %1 ]
  %47 = getelementptr inbounds nuw i8, ptr %0, i64 20
  %48 = tail call noundef i64 @_ZNK6google8protobuf7Message29MaybeComputeUnknownFieldsSizeEmPNS0_8internal10CachedSizeE(ptr noundef nonnull align 8 dereferenceable(16) %0, i64 noundef %.0, ptr noundef nonnull %47)
  ret i64 %48
}